target datalayout = "e-m:e-p270:32:32-p271:32:32-p272:64:64-i64:64-i128:128-f80:128-n8:16:32:64-S128"
target triple = "x86_64-pc-linux-gnu"

%struct.util_store_cap_data = type { ptr, ptr, ptr, i32 }

@.str.47 = private unnamed_addr constant [10 x i8] c"STORE(%s)\00", align 1

; Function Attrs: nounwind uwtable
define internal void @util_store_cap(ptr noundef %0, ptr noundef %1) #0 {
  %3 = alloca ptr, align 8
  %4 = alloca ptr, align 8
  %5 = alloca ptr, align 8
  %6 = alloca [256 x i8], align 16
  store ptr %0, ptr %3, align 8, !tbaa !42
  store ptr %1, ptr %4, align 8, !tbaa !27
  call void @llvm.lifetime.start.p0(i64 8, ptr %5) #7
  %7 = load ptr, ptr %4, align 8, !tbaa !27
  store ptr %7, ptr %5, align 8, !tbaa !44
  %8 = load ptr, ptr %3, align 8, !tbaa !42
  %9 = call ptr @OSSL_STORE_LOADER_get0_engine(ptr noundef %8)
  %10 = load ptr, ptr %5, align 8, !tbaa !44
  %11 = getelementptr inbounds nuw %struct.util_store_cap_data, ptr %10, i32 0, i32 0
  %12 = load ptr, ptr %11, align 8, !tbaa !33
  %13 = icmp eq ptr %9, %12
  br i1 %13, label %14, label %32

14:                                               ; preds = %2
  call void @llvm.lifetime.start.p0(i64 256, ptr %6) #7
  %15 = getelementptr inbounds [256 x i8], ptr %6, i64 0, i64 0
  %16 = load ptr, ptr %3, align 8, !tbaa !42
  %17 = call ptr @OSSL_STORE_LOADER_get0_scheme(ptr noundef %16)
  %18 = call i32 (ptr, i64, ptr, ...) @BIO_snprintf(ptr noundef %15, i64 noundef 256, ptr noundef @.str.47, ptr noundef %17)
  %19 = load ptr, ptr %5, align 8, !tbaa !44
  %20 = getelementptr inbounds nuw %struct.util_store_cap_data, ptr %19, i32 0, i32 1
  %21 = load ptr, ptr %20, align 8, !tbaa !35
  %22 = load ptr, ptr %5, align 8, !tbaa !44
  %23 = getelementptr inbounds nuw %struct.util_store_cap_data, ptr %22, i32 0, i32 2
  %24 = load ptr, ptr %23, align 8, !tbaa !36
  %25 = getelementptr inbounds [256 x i8], ptr %6, i64 0, i64 0
  %26 = call i32 @append_buf(ptr noundef %21, ptr noundef %24, ptr noundef %25)
  %27 = icmp ne i32 %26, 0
  br i1 %27, label %31, label %28

28:                                               ; preds = %14
  %29 = load ptr, ptr %5, align 8, !tbaa !44
  %30 = getelementptr inbounds nuw %struct.util_store_cap_data, ptr %29, i32 0, i32 3
  store i32 0, ptr %30, align 8, !tbaa !37
  br label %31

31:                                               ; preds = %28, %14
  call void @llvm.lifetime.end.p0(i64 256, ptr %6) #7
  br label %32

32:                                               ; preds = %31, %2
  call void @llvm.lifetime.end.p0(i64 8, ptr %5) #7
  ret void
}