; Function Attrs: nounwind uwtable
define internal void @util_store_cap(ptr noundef %0, ptr noundef captures(none) %1) #0 {
  %3 = alloca [256 x i8], align 16
  %4 = tail call ptr @OSSL_STORE_LOADER_get0_engine(ptr noundef %0) #7
  %5 = load ptr, ptr %1, align 8, !tbaa !24
  %6 = icmp eq ptr %4, %5
  br i1 %6, label %7, label %18

7:                                                ; preds = %2
  call void @llvm.lifetime.start.p0(i64 256, ptr nonnull %3) #7
  %8 = tail call ptr @OSSL_STORE_LOADER_get0_scheme(ptr noundef %0) #7
  %9 = call i32 (ptr, i64, ptr, ...) @BIO_snprintf(ptr noundef nonnull %3, i64 noundef 256, ptr noundef nonnull @.str.47, ptr noundef %8) #7
  %10 = getelementptr inbounds nuw i8, ptr %1, i64 8
  %11 = load ptr, ptr %10, align 8, !tbaa !28
  %12 = getelementptr inbounds nuw i8, ptr %1, i64 16
  %13 = load ptr, ptr %12, align 8, !tbaa !29
  %14 = call fastcc i32 @append_buf(ptr noundef %11, ptr noundef %13, ptr noundef nonnull %3)
  %.not = icmp eq i32 %14, 0
  br i1 %.not, label %15, label %17

15:                                               ; preds = %7
  %16 = getelementptr inbounds nuw i8, ptr %1, i64 24
  store i32 0, ptr %16, align 8, !tbaa !30
  br label %17

17:                                               ; preds = %15, %7
  call void @llvm.lifetime.end.p0(i64 256, ptr nonnull %3) #7
  br label %18

18:                                               ; preds = %17, %2
  ret void
}